; Function Attrs: mustprogress uwtable
define noundef zeroext i1 @_ZN10PacketList18uniqueSelectActiveEv(ptr noundef nonnull align 8 dereferenceable(464) %0) local_unnamed_addr #0 align 2 personality ptr @__gxx_personality_v0 {
  %2 = alloca %class.QList.5, align 8
  %3 = tail call noundef ptr @_ZNK17QAbstractItemView14selectionModelEv(ptr noundef nonnull align 8 dereferenceable(40) %0)
  call void @_ZNK19QItemSelectionModel12selectedRowsEi(ptr dead_on_unwind nonnull writable sret(%class.QList.5) align 8 %2, ptr noundef nonnull align 8 dereferenceable(16) %3, i32 noundef 0)
  %4 = getelementptr inbounds i8, ptr %2, i64 16
  %5 = load i64, ptr %4, align 8
  %6 = load ptr, ptr %2, align 8
  %.not.i.i.i = icmp eq ptr %6, null
  br i1 %.not.i.i.i, label %_ZN5QListI11QModelIndexED2Ev.exit, label %_ZN17QArrayDataPointerI11QModelIndexE5derefEv.exit.i.i

_ZN17QArrayDataPointerI11QModelIndexE5derefEv.exit.i.i: ; preds = %1
  %7 = atomicrmw sub ptr %6, i32 1 seq_cst, align 4
  %.not.i.i = icmp eq i32 %7, 1
  br i1 %.not.i.i, label %8, label %_ZN5QListI11QModelIndexED2Ev.exit

8:                                                ; preds = %_ZN17QArrayDataPointerI11QModelIndexE5derefEv.exit.i.i
  %9 = load ptr, ptr %2, align 8
  call void @_ZN10QArrayData10deallocateEPS_xx(ptr noundef %9, i64 noundef 24, i64 noundef 8) #20
  br label %_ZN5QListI11QModelIndexED2Ev.exit

_ZN5QListI11QModelIndexED2Ev.exit:                ; preds = %1, %_ZN17QArrayDataPointerI11QModelIndexE5derefEv.exit.i.i, %8
  %10 = icmp eq i64 %5, 1
  ret i1 %10
}